---
triple:          'arm64-apple-darwin'
binary-path:     range
relocations:
  - { offsetInCU: 0x2F9A, offset: 0x2F9A, size: 0x8, addend: 0x0, symName: __ZNSt3__124__put_character_sequenceB8ue170006IcNS_11char_traitsIcEEEERNS_13basic_ostreamIT_T0_EES7_PKS4_m, symObjAddr: 0x4AC, symBinAddr: 0x100002F5C, symSize: 0x1EC }
  - { offsetInCU: 0x4931, offset: 0x4931, size: 0x8, addend: 0x0, symName: __ZNSt3__1lsB8ue170006INS_11char_traitsIcEEEERNS_13basic_ostreamIcT_EES6_PKc, symObjAddr: 0x278, symBinAddr: 0x100002D28, symSize: 0x48 }
  - { offsetInCU: 0x4977, offset: 0x4977, size: 0x8, addend: 0x0, symName: __ZNSt3__14findB8ue170006IN5RangeILl5ELl10EE8iteratorEiEET_S4_S4_RKT0_, symObjAddr: 0x2E0, symBinAddr: 0x100002D90, symSize: 0x80 }
  - { offsetInCU: 0x49DF, offset: 0x49DF, size: 0x8, addend: 0x0, symName: __ZNSt3__116__pad_and_outputB8ue170006IcNS_11char_traitsIcEEEENS_19ostreambuf_iteratorIT_T0_EES6_PKS4_S8_S8_RNS_8ios_baseES4_, symObjAddr: 0x6E8, symBinAddr: 0x100003198, symSize: 0x240 }
  - { offsetInCU: 0x4AAE, offset: 0x4AAE, size: 0x8, addend: 0x0, symName: __ZNSt3__112__to_addressB8ue170006IcEEPT_S2_, symObjAddr: 0xC5C, symBinAddr: 0x10000370C, symSize: 0x14 }
  - { offsetInCU: 0x4B16, offset: 0x4B16, size: 0x8, addend: 0x0, symName: __ZNSt3__19use_facetB8ue170006INS_5ctypeIcEEEERKT_RKNS_6localeE, symObjAddr: 0xF14, symBinAddr: 0x1000039C4, symSize: 0x2C }
  - { offsetInCU: 0x4FE3, offset: 0x4FE3, size: 0x8, addend: 0x0, symName: __ZNSt3__118__constexpr_strlenB8ue170006EPKc, symObjAddr: 0xFAC, symBinAddr: 0x100003A5C, symSize: 0x24 }
  - { offsetInCU: 0x500F, offset: 0x500F, size: 0x8, addend: 0x0, symName: __ZNSt3__113__rewrap_iterB8ue170006IN5RangeILl5ELl10EE8iteratorES3_NS_18__unwrap_iter_implIS3_Lb0EEEEET_S6_T0_, symObjAddr: 0xFD0, symBinAddr: 0x100003A80, symSize: 0x54 }
  - { offsetInCU: 0x5064, offset: 0x5064, size: 0x8, addend: 0x0, symName: __ZNSt3__111__find_implB8ue170006IN5RangeILl5ELl10EE8iteratorES3_iNS_10__identityEEET_S5_T0_RKT1_RT2_, symObjAddr: 0x1024, symBinAddr: 0x100003AD4, symSize: 0xA8 }
  - { offsetInCU: 0x50DE, offset: 0x50DE, size: 0x8, addend: 0x0, symName: __ZNSt3__113__unwrap_iterB8ue170006IN5RangeILl5ELl10EE8iteratorENS_18__unwrap_iter_implIS3_Lb0EEELi0EEEDTclsrT0_8__unwrapclsr3stdE7declvalIT_EEEES7_, symObjAddr: 0x10CC, symBinAddr: 0x100003B7C, symSize: 0x34 }
  - { offsetInCU: 0x516A, offset: 0x516A, size: 0x8, addend: 0x0, symName: __ZNSt3__18__invokeB8ue170006IRNS_10__identityEJlEEEDTclclsr3stdE7declvalIT_EEspclsr3stdE7declvalIT0_EEEEOS3_DpOS4_, symObjAddr: 0x1120, symBinAddr: 0x100003BD0, symSize: 0x2C }
  - { offsetInCU: 0x7AA8, offset: 0x7AA8, size: 0x8, addend: 0x0, symName: _main, symObjAddr: 0x0, symBinAddr: 0x100002AB0, symSize: 0x1CC }
  - { offsetInCU: 0x7B8A, offset: 0x7B8A, size: 0x8, addend: 0x0, symName: __ZN5RangeILl5ELl10EE5beginEv, symObjAddr: 0x1CC, symBinAddr: 0x100002C7C, symSize: 0x2C }
  - { offsetInCU: 0x7BAE, offset: 0x7BAE, size: 0x8, addend: 0x0, symName: __ZN5RangeILl5ELl10EE3endEv, symObjAddr: 0x1F8, symBinAddr: 0x100002CA8, symSize: 0x2C }
  - { offsetInCU: 0x7BD2, offset: 0x7BD2, size: 0x8, addend: 0x0, symName: __ZN5RangeILl5ELl10EE8iteratorneES1_, symObjAddr: 0x224, symBinAddr: 0x100002CD4, symSize: 0x3C }
  - { offsetInCU: 0x7C04, offset: 0x7C04, size: 0x8, addend: 0x0, symName: __ZNK5RangeILl5ELl10EE8iteratordeEv, symObjAddr: 0x260, symBinAddr: 0x100002D10, symSize: 0x18 }
  - { offsetInCU: 0x7C28, offset: 0x7C28, size: 0x8, addend: 0x0, symName: __ZN5RangeILl5ELl10EE8iteratorppEv, symObjAddr: 0x2C0, symBinAddr: 0x100002D70, symSize: 0x20 }
  - { offsetInCU: 0x7C4C, offset: 0x7C4C, size: 0x8, addend: 0x0, symName: __ZN5RangeILl10ELl5EE5beginEv, symObjAddr: 0x360, symBinAddr: 0x100002E10, symSize: 0x2C }
  - { offsetInCU: 0x7C70, offset: 0x7C70, size: 0x8, addend: 0x0, symName: __ZN5RangeILl10ELl5EE3endEv, symObjAddr: 0x38C, symBinAddr: 0x100002E3C, symSize: 0x2C }
  - { offsetInCU: 0x7C94, offset: 0x7C94, size: 0x8, addend: 0x0, symName: __ZN5RangeILl10ELl5EE8iteratorneES1_, symObjAddr: 0x3B8, symBinAddr: 0x100002E68, symSize: 0x3C }
  - { offsetInCU: 0x7CC6, offset: 0x7CC6, size: 0x8, addend: 0x0, symName: __ZNK5RangeILl10ELl5EE8iteratordeEv, symObjAddr: 0x3F4, symBinAddr: 0x100002EA4, symSize: 0x18 }
  - { offsetInCU: 0x7CEA, offset: 0x7CEA, size: 0x8, addend: 0x0, symName: __ZN5RangeILl10ELl5EE8iteratorppEv, symObjAddr: 0x40C, symBinAddr: 0x100002EBC, symSize: 0x20 }
  - { offsetInCU: 0x7D0E, offset: 0x7D0E, size: 0x8, addend: 0x0, symName: __ZN5RangeILl5ELl10EE8iteratorC1El, symObjAddr: 0x42C, symBinAddr: 0x100002EDC, symSize: 0x34 }
  - { offsetInCU: 0x7D44, offset: 0x7D44, size: 0x8, addend: 0x0, symName: __ZN5RangeILl5ELl10EE8iteratorC2El, symObjAddr: 0x460, symBinAddr: 0x100002F10, symSize: 0x20 }
  - { offsetInCU: 0x7D7A, offset: 0x7D7A, size: 0x8, addend: 0x0, symName: __ZN5RangeILl5ELl10EE8iteratoreqES1_, symObjAddr: 0x480, symBinAddr: 0x100002F30, symSize: 0x2C }
  - { offsetInCU: 0x7DAC, offset: 0x7DAC, size: 0x8, addend: 0x0, symName: __ZNSt3__111char_traitsIcE6lengthB8ue170006EPKc, symObjAddr: 0x698, symBinAddr: 0x100003148, symSize: 0x34 }
  - { offsetInCU: 0x7DEC, offset: 0x7DEC, size: 0x8, addend: 0x0, symName: __ZNKSt3__113basic_ostreamIcNS_11char_traitsIcEEE6sentrycvbB8ue170006Ev, symObjAddr: 0x6CC, symBinAddr: 0x10000317C, symSize: 0x1C }
  - { offsetInCU: 0x7E10, offset: 0x7E10, size: 0x8, addend: 0x0, symName: __ZNSt3__119ostreambuf_iteratorIcNS_11char_traitsIcEEEC1B8ue170006ERNS_13basic_ostreamIcS2_EE, symObjAddr: 0x928, symBinAddr: 0x1000033D8, symSize: 0x34 }
  - { offsetInCU: 0x7E46, offset: 0x7E46, size: 0x8, addend: 0x0, symName: __ZNKSt3__18ios_base5flagsB8ue170006Ev, symObjAddr: 0x95C, symBinAddr: 0x10000340C, symSize: 0x18 }
  - { offsetInCU: 0x7E6D, offset: 0x7E6D, size: 0x8, addend: 0x0, symName: __ZNKSt3__19basic_iosIcNS_11char_traitsIcEEE4fillB8ue170006Ev, symObjAddr: 0x974, symBinAddr: 0x100003424, symSize: 0x64 }
  - { offsetInCU: 0x7E92, offset: 0x7E92, size: 0x8, addend: 0x0, symName: __ZNKSt3__119ostreambuf_iteratorIcNS_11char_traitsIcEEE6failedB8ue170006Ev, symObjAddr: 0x9D8, symBinAddr: 0x100003488, symSize: 0x24 }
  - { offsetInCU: 0x7EB6, offset: 0x7EB6, size: 0x8, addend: 0x0, symName: __ZNSt3__19basic_iosIcNS_11char_traitsIcEEE8setstateB8ue170006Ej, symObjAddr: 0x9FC, symBinAddr: 0x1000034AC, symSize: 0x2C }
  - { offsetInCU: 0x7EE9, offset: 0x7EE9, size: 0x8, addend: 0x0, symName: __ZNKSt3__18ios_base5widthB8ue170006Ev, symObjAddr: 0xA34, symBinAddr: 0x1000034E4, symSize: 0x18 }
  - { offsetInCU: 0x7F0F, offset: 0x7F0F, size: 0x8, addend: 0x0, symName: __ZNSt3__115basic_streambufIcNS_11char_traitsIcEEE5sputnB8ue170006EPKcl, symObjAddr: 0xA4C, symBinAddr: 0x1000034FC, symSize: 0x3C }
  - { offsetInCU: 0x7F4F, offset: 0x7F4F, size: 0x8, addend: 0x0, symName: __ZNSt3__112basic_stringIcNS_11char_traitsIcEENS_9allocatorIcEEEC1B8ue170006Emc, symObjAddr: 0xA88, symBinAddr: 0x100003538, symSize: 0x3C }
  - { offsetInCU: 0x7F95, offset: 0x7F95, size: 0x8, addend: 0x0, symName: __ZNSt3__112basic_stringIcNS_11char_traitsIcEENS_9allocatorIcEEE4dataB8ue170006Ev, symObjAddr: 0xAC4, symBinAddr: 0x100003574, symSize: 0x28 }
  - { offsetInCU: 0x7FB9, offset: 0x7FB9, size: 0x8, addend: 0x0, symName: __ZNSt3__18ios_base5widthB8ue170006El, symObjAddr: 0xAEC, symBinAddr: 0x10000359C, symSize: 0x2C }
  - { offsetInCU: 0x7FFD, offset: 0x7FFD, size: 0x8, addend: 0x0, symName: __ZNSt3__112basic_stringIcNS_11char_traitsIcEENS_9allocatorIcEEEC2B8ue170006Emc, symObjAddr: 0xB18, symBinAddr: 0x1000035C8, symSize: 0x4C }
  - { offsetInCU: 0x8048, offset: 0x8048, size: 0x8, addend: 0x0, symName: __ZNSt3__117__compressed_pairINS_12basic_stringIcNS_11char_traitsIcEENS_9allocatorIcEEE5__repES5_EC1B8ue170006INS_18__default_init_tagESA_EEOT_OT0_, symObjAddr: 0xB64, symBinAddr: 0x100003614, symSize: 0x3C }
  - { offsetInCU: 0x809E, offset: 0x809E, size: 0x8, addend: 0x0, symName: __ZNSt3__117__compressed_pairINS_12basic_stringIcNS_11char_traitsIcEENS_9allocatorIcEEE5__repES5_EC2B8ue170006INS_18__default_init_tagESA_EEOT_OT0_, symObjAddr: 0xBA0, symBinAddr: 0x100003650, symSize: 0x3C }
  - { offsetInCU: 0x80F4, offset: 0x80F4, size: 0x8, addend: 0x0, symName: __ZNSt3__122__compressed_pair_elemINS_12basic_stringIcNS_11char_traitsIcEENS_9allocatorIcEEE5__repELi0ELb0EEC2B8ue170006ENS_18__default_init_tagE, symObjAddr: 0xBDC, symBinAddr: 0x10000368C, symSize: 0x14 }
  - { offsetInCU: 0x8127, offset: 0x8127, size: 0x8, addend: 0x0, symName: __ZNSt3__122__compressed_pair_elemINS_9allocatorIcEELi1ELb1EEC2B8ue170006ENS_18__default_init_tagE, symObjAddr: 0xBF0, symBinAddr: 0x1000036A0, symSize: 0x2C }
  - { offsetInCU: 0x815A, offset: 0x815A, size: 0x8, addend: 0x0, symName: __ZNSt3__19allocatorIcEC2B8ue170006Ev, symObjAddr: 0xC1C, symBinAddr: 0x1000036CC, symSize: 0x2C }
  - { offsetInCU: 0x8182, offset: 0x8182, size: 0x8, addend: 0x0, symName: __ZNSt3__116__non_trivial_ifILb1ENS_9allocatorIcEEEC2B8ue170006Ev, symObjAddr: 0xC48, symBinAddr: 0x1000036F8, symSize: 0x14 }
  - { offsetInCU: 0x81AA, offset: 0x81AA, size: 0x8, addend: 0x0, symName: __ZNSt3__112basic_stringIcNS_11char_traitsIcEENS_9allocatorIcEEE13__get_pointerB8ue170006Ev, symObjAddr: 0xC70, symBinAddr: 0x100003720, symSize: 0x54 }
  - { offsetInCU: 0x81CE, offset: 0x81CE, size: 0x8, addend: 0x0, symName: __ZNKSt3__112basic_stringIcNS_11char_traitsIcEENS_9allocatorIcEEE9__is_longB8ue170006Ev, symObjAddr: 0xCC4, symBinAddr: 0x100003774, symSize: 0x38 }
  - { offsetInCU: 0x81F2, offset: 0x81F2, size: 0x8, addend: 0x0, symName: __ZNSt3__112basic_stringIcNS_11char_traitsIcEENS_9allocatorIcEEE18__get_long_pointerB8ue170006Ev, symObjAddr: 0xCFC, symBinAddr: 0x1000037AC, symSize: 0x28 }
  - { offsetInCU: 0x8216, offset: 0x8216, size: 0x8, addend: 0x0, symName: __ZNSt3__112basic_stringIcNS_11char_traitsIcEENS_9allocatorIcEEE19__get_short_pointerB8ue170006Ev, symObjAddr: 0xD24, symBinAddr: 0x1000037D4, symSize: 0x28 }
  - { offsetInCU: 0x823A, offset: 0x823A, size: 0x8, addend: 0x0, symName: __ZNKSt3__117__compressed_pairINS_12basic_stringIcNS_11char_traitsIcEENS_9allocatorIcEEE5__repES5_E5firstB8ue170006Ev, symObjAddr: 0xD4C, symBinAddr: 0x1000037FC, symSize: 0x24 }
  - { offsetInCU: 0x825E, offset: 0x825E, size: 0x8, addend: 0x0, symName: __ZNKSt3__122__compressed_pair_elemINS_12basic_stringIcNS_11char_traitsIcEENS_9allocatorIcEEE5__repELi0ELb0EE5__getB8ue170006Ev, symObjAddr: 0xD70, symBinAddr: 0x100003820, symSize: 0x14 }
  - { offsetInCU: 0x8282, offset: 0x8282, size: 0x8, addend: 0x0, symName: __ZNSt3__117__compressed_pairINS_12basic_stringIcNS_11char_traitsIcEENS_9allocatorIcEEE5__repES5_E5firstB8ue170006Ev, symObjAddr: 0xD84, symBinAddr: 0x100003834, symSize: 0x24 }
  - { offsetInCU: 0x82A6, offset: 0x82A6, size: 0x8, addend: 0x0, symName: __ZNSt3__122__compressed_pair_elemINS_12basic_stringIcNS_11char_traitsIcEENS_9allocatorIcEEE5__repELi0ELb0EE5__getB8ue170006Ev, symObjAddr: 0xDA8, symBinAddr: 0x100003858, symSize: 0x14 }
  - { offsetInCU: 0x82CB, offset: 0x82CB, size: 0x8, addend: 0x0, symName: __ZNSt3__114pointer_traitsIPcE10pointer_toB8ue170006ERc, symObjAddr: 0xDBC, symBinAddr: 0x10000386C, symSize: 0x14 }
  - { offsetInCU: 0x82ED, offset: 0x82ED, size: 0x8, addend: 0x0, symName: __ZNSt3__119ostreambuf_iteratorIcNS_11char_traitsIcEEEC2B8ue170006ERNS_13basic_ostreamIcS2_EE, symObjAddr: 0xDD0, symBinAddr: 0x100003880, symSize: 0x54 }
  - { offsetInCU: 0x8324, offset: 0x8324, size: 0x8, addend: 0x0, symName: __ZNKSt3__19basic_iosIcNS_11char_traitsIcEEE5rdbufB8ue170006Ev, symObjAddr: 0xE24, symBinAddr: 0x1000038D4, symSize: 0x24 }
  - { offsetInCU: 0x8349, offset: 0x8349, size: 0x8, addend: 0x0, symName: __ZNKSt3__18ios_base5rdbufB8ue170006Ev, symObjAddr: 0xE48, symBinAddr: 0x1000038F8, symSize: 0x18 }
  - { offsetInCU: 0x836E, offset: 0x836E, size: 0x8, addend: 0x0, symName: __ZNSt3__111char_traitsIcE11eq_int_typeB8ue170006Eii, symObjAddr: 0xE60, symBinAddr: 0x100003910, symSize: 0x28 }
  - { offsetInCU: 0x83A1, offset: 0x83A1, size: 0x8, addend: 0x0, symName: __ZNSt3__111char_traitsIcE3eofB8ue170006Ev, symObjAddr: 0xE88, symBinAddr: 0x100003938, symSize: 0x8 }
  - { offsetInCU: 0x83B5, offset: 0x83B5, size: 0x8, addend: 0x0, symName: __ZNKSt3__19basic_iosIcNS_11char_traitsIcEEE5widenB8ue170006Ec, symObjAddr: 0xE90, symBinAddr: 0x100003940, symSize: 0x84 }
  - { offsetInCU: 0x8420, offset: 0x8420, size: 0x8, addend: 0x0, symName: __ZNKSt3__15ctypeIcE5widenB8ue170006Ec, symObjAddr: 0xF40, symBinAddr: 0x1000039F0, symSize: 0x38 }
  - { offsetInCU: 0x8454, offset: 0x8454, size: 0x8, addend: 0x0, symName: __ZNSt3__18ios_base8setstateB8ue170006Ej, symObjAddr: 0xF78, symBinAddr: 0x100003A28, symSize: 0x34 }
  - { offsetInCU: 0x8489, offset: 0x8489, size: 0x8, addend: 0x0, symName: __ZNSt3__118__unwrap_iter_implIN5RangeILl5ELl10EE8iteratorELb0EE8__rewrapB8ue170006ES3_S3_, symObjAddr: 0x1100, symBinAddr: 0x100003BB0, symSize: 0x20 }
  - { offsetInCU: 0x84C5, offset: 0x84C5, size: 0x8, addend: 0x0, symName: __ZNKSt3__110__identityclB8ue170006IlEEOT_S3_, symObjAddr: 0x114C, symBinAddr: 0x100003BFC, symSize: 0x18 }
  - { offsetInCU: 0x8501, offset: 0x8501, size: 0x8, addend: 0x0, symName: __ZNSt3__118__unwrap_iter_implIN5RangeILl5ELl10EE8iteratorELb0EE8__unwrapB8ue170006ES3_, symObjAddr: 0x1164, symBinAddr: 0x100003C14, symSize: 0x1C }
  - { offsetInCU: 0x8523, offset: 0x8523, size: 0x8, addend: 0x0, symName: __ZN5RangeILl10ELl5EE8iteratorC1El, symObjAddr: 0x1180, symBinAddr: 0x100003C30, symSize: 0x34 }
  - { offsetInCU: 0x8559, offset: 0x8559, size: 0x8, addend: 0x0, symName: __ZN5RangeILl10ELl5EE8iteratorC2El, symObjAddr: 0x11B4, symBinAddr: 0x100003C64, symSize: 0x20 }
  - { offsetInCU: 0x858F, offset: 0x858F, size: 0x8, addend: 0x0, symName: __ZN5RangeILl10ELl5EE8iteratoreqES1_, symObjAddr: 0x11D4, symBinAddr: 0x100003C84, symSize: 0x2C }
...
